target datalayout = "e-m:e-p270:32:32-p271:32:32-p272:64:64-i64:64-i128:128-f80:128-n8:16:32:64-S128"
target triple = "x86_64-pc-linux-gnu"

%struct.IDAMemRec = type { ptr, double, ptr, ptr, i32, double, double, ptr, i32, i32, ptr, ptr, i32, i32, [6 x ptr], [6 x double], [6 x double], [6 x double], [6 x double], [6 x double], ptr, ptr, ptr, ptr, ptr, ptr, ptr, ptr, ptr, ptr, ptr, ptr, ptr, ptr, ptr, ptr, ptr, double, ptr, ptr, i32, i32, i32, i32, i32, i32, i32, i32, double, double, double, i32, double, i32, i32, i32, i32, i32, double, double, double, double, double, double, double, double, double, double, double, double, double, double, double, double, i32, i32, i32, i32, i64, double, double, double, double, double, double, double, double, double, i64, i64, i64, i64, i64, i64, i64, i64, i64, i64, i64, double, i32, i32, i32, i32, i32, ptr, i32, ptr, ptr, ptr, ptr, ptr, ptr, ptr, double, i32, ptr, i32, ptr, ptr, double, double, double, ptr, ptr, ptr, double, double, i32, i32, i64, ptr, i32, [6 x double], [5 x double], [6 x ptr], [6 x ptr] }

@.str = private unnamed_addr constant [113 x i8] c"generated/home/dtcxzyw/WorkSpace/Projects/compilers/llvm-opt-benchmark/bench/sundials/sundials/src/ida/ida_nls.c\00", align 1
@.str.1 = private unnamed_addr constant [24 x i8] c"ida_mem = NULL illegal.\00", align 1
@__func__.idaNlsLSetup = private unnamed_addr constant [13 x i8] c"idaNlsLSetup\00", align 1

; Function Attrs: nounwind uwtable
define internal i32 @idaNlsLSetup(i32 noundef %0, ptr noundef %1, ptr noundef %2) #0 {
  %4 = alloca i32, align 4
  %5 = alloca i32, align 4
  %6 = alloca ptr, align 8
  %7 = alloca ptr, align 8
  %8 = alloca ptr, align 8
  %9 = alloca i32, align 4
  %10 = alloca i32, align 4
  store i32 %0, ptr %5, align 4, !tbaa !28
  store ptr %1, ptr %6, align 8, !tbaa !50
  store ptr %2, ptr %7, align 8, !tbaa !3
  call void @llvm.lifetime.start.p0(i64 8, ptr %8) #3
  call void @llvm.lifetime.start.p0(i64 4, ptr %9) #3
  %11 = load ptr, ptr %7, align 8, !tbaa !3
  %12 = icmp eq ptr %11, null
  br i1 %12, label %13, label %14

13:                                               ; preds = %3
  call void (ptr, i32, i32, ptr, ptr, ptr, ...) @IDAProcessError(ptr noundef null, i32 noundef -20, i32 noundef 244, ptr noundef @__func__.idaNlsLSetup, ptr noundef @.str, ptr noundef @.str.1)
  store i32 -20, ptr %4, align 4
  store i32 1, ptr %10, align 4
  br label %61

14:                                               ; preds = %3
  %15 = load ptr, ptr %7, align 8, !tbaa !3
  store ptr %15, ptr %8, align 8, !tbaa !9
  %16 = load ptr, ptr %8, align 8, !tbaa !9
  %17 = getelementptr inbounds nuw %struct.IDAMemRec, ptr %16, i32 0, i32 94
  %18 = load i64, ptr %17, align 8, !tbaa !51
  %19 = add nsw i64 %18, 1
  store i64 %19, ptr %17, align 8, !tbaa !51
  %20 = load ptr, ptr %8, align 8, !tbaa !9
  %21 = getelementptr inbounds nuw %struct.IDAMemRec, ptr %20, i32 0, i32 109
  %22 = load ptr, ptr %21, align 8, !tbaa !48
  %23 = load ptr, ptr %8, align 8, !tbaa !9
  %24 = load ptr, ptr %8, align 8, !tbaa !9
  %25 = getelementptr inbounds nuw %struct.IDAMemRec, ptr %24, i32 0, i32 21
  %26 = load ptr, ptr %25, align 8, !tbaa !33
  %27 = load ptr, ptr %8, align 8, !tbaa !9
  %28 = getelementptr inbounds nuw %struct.IDAMemRec, ptr %27, i32 0, i32 22
  %29 = load ptr, ptr %28, align 8, !tbaa !36
  %30 = load ptr, ptr %8, align 8, !tbaa !9
  %31 = getelementptr inbounds nuw %struct.IDAMemRec, ptr %30, i32 0, i32 28
  %32 = load ptr, ptr %31, align 8, !tbaa !40
  %33 = load ptr, ptr %8, align 8, !tbaa !9
  %34 = getelementptr inbounds nuw %struct.IDAMemRec, ptr %33, i32 0, i32 30
  %35 = load ptr, ptr %34, align 8, !tbaa !52
  %36 = load ptr, ptr %8, align 8, !tbaa !9
  %37 = getelementptr inbounds nuw %struct.IDAMemRec, ptr %36, i32 0, i32 31
  %38 = load ptr, ptr %37, align 8, !tbaa !53
  %39 = load ptr, ptr %8, align 8, !tbaa !9
  %40 = getelementptr inbounds nuw %struct.IDAMemRec, ptr %39, i32 0, i32 32
  %41 = load ptr, ptr %40, align 8, !tbaa !54
  %42 = call i32 %22(ptr noundef %23, ptr noundef %26, ptr noundef %29, ptr noundef %32, ptr noundef %35, ptr noundef %38, ptr noundef %41)
  store i32 %42, ptr %9, align 4, !tbaa !28
  %43 = load ptr, ptr %6, align 8, !tbaa !50
  store i32 1, ptr %43, align 4, !tbaa !28
  %44 = load ptr, ptr %8, align 8, !tbaa !9
  %45 = getelementptr inbounds nuw %struct.IDAMemRec, ptr %44, i32 0, i32 65
  %46 = load double, ptr %45, align 8, !tbaa !35
  %47 = load ptr, ptr %8, align 8, !tbaa !9
  %48 = getelementptr inbounds nuw %struct.IDAMemRec, ptr %47, i32 0, i32 67
  store double %46, ptr %48, align 8, !tbaa !55
  %49 = load ptr, ptr %8, align 8, !tbaa !9
  %50 = getelementptr inbounds nuw %struct.IDAMemRec, ptr %49, i32 0, i32 68
  store double 1.000000e+00, ptr %50, align 8, !tbaa !56
  %51 = load ptr, ptr %8, align 8, !tbaa !9
  %52 = getelementptr inbounds nuw %struct.IDAMemRec, ptr %51, i32 0, i32 69
  store double 2.000000e+01, ptr %52, align 8, !tbaa !44
  %53 = load i32, ptr %9, align 4, !tbaa !28
  %54 = icmp slt i32 %53, 0
  br i1 %54, label %55, label %56

55:                                               ; preds = %14
  store i32 -6, ptr %4, align 4
  store i32 1, ptr %10, align 4
  br label %61

56:                                               ; preds = %14
  %57 = load i32, ptr %9, align 4, !tbaa !28
  %58 = icmp sgt i32 %57, 0
  br i1 %58, label %59, label %60

59:                                               ; preds = %56
  store i32 2, ptr %4, align 4
  store i32 1, ptr %10, align 4
  br label %61

60:                                               ; preds = %56
  store i32 0, ptr %4, align 4
  store i32 1, ptr %10, align 4
  br label %61

61:                                               ; preds = %60, %59, %55, %13
  call void @llvm.lifetime.end.p0(i64 4, ptr %9) #3
  call void @llvm.lifetime.end.p0(i64 8, ptr %8) #3
  %62 = load i32, ptr %4, align 4
  ret i32 %62
}