; Function Attrs: nounwind uwtable
define internal range(i32 -20, 3) i32 @idaNlsLSetup(i32 %0, ptr noundef writeonly captures(none) %1, ptr noundef %2) #0 {
  %4 = icmp eq ptr %2, null
  br i1 %4, label %5, label %6

5:                                                ; preds = %3
  tail call void (ptr, i32, i32, ptr, ptr, ptr, ...) @IDAProcessError(ptr noundef null, i32 noundef -20, i32 noundef 244, ptr noundef nonnull @__func__.idaNlsLSetup, ptr noundef nonnull @.str, ptr noundef nonnull @.str.1) #3
  br label %32

6:                                                ; preds = %3
  %7 = getelementptr inbounds nuw i8, ptr %2, i64 912
  %8 = load i64, ptr %7, align 8, !tbaa !44
  %9 = add nsw i64 %8, 1
  store i64 %9, ptr %7, align 8, !tbaa !44
  %10 = getelementptr inbounds nuw i8, ptr %2, i64 1016
  %11 = load ptr, ptr %10, align 8, !tbaa !42
  %12 = getelementptr inbounds nuw i8, ptr %2, i64 392
  %13 = load ptr, ptr %12, align 8, !tbaa !27
  %14 = getelementptr inbounds nuw i8, ptr %2, i64 400
  %15 = load ptr, ptr %14, align 8, !tbaa !30
  %16 = getelementptr inbounds nuw i8, ptr %2, i64 448
  %17 = load ptr, ptr %16, align 8, !tbaa !34
  %18 = getelementptr inbounds nuw i8, ptr %2, i64 464
  %19 = load ptr, ptr %18, align 8, !tbaa !45
  %20 = getelementptr inbounds nuw i8, ptr %2, i64 472
  %21 = load ptr, ptr %20, align 8, !tbaa !46
  %22 = getelementptr inbounds nuw i8, ptr %2, i64 480
  %23 = load ptr, ptr %22, align 8, !tbaa !47
  %24 = tail call i32 %11(ptr noundef nonnull %2, ptr noundef %13, ptr noundef %15, ptr noundef %17, ptr noundef %19, ptr noundef %21, ptr noundef %23) #3
  store i32 1, ptr %1, align 4, !tbaa !35
  %25 = getelementptr inbounds nuw i8, ptr %2, i64 696
  %26 = load double, ptr %25, align 8, !tbaa !29
  %27 = getelementptr inbounds nuw i8, ptr %2, i64 712
  store double %26, ptr %27, align 8, !tbaa !48
  %28 = getelementptr inbounds nuw i8, ptr %2, i64 720
  store double 1.000000e+00, ptr %28, align 8, !tbaa !49
  %29 = getelementptr inbounds nuw i8, ptr %2, i64 728
  store double 2.000000e+01, ptr %29, align 8, !tbaa !38
  %30 = icmp slt i32 %24, 0
  br i1 %30, label %32, label %31

31:                                               ; preds = %6
  %.not = icmp eq i32 %24, 0
  %. = select i1 %.not, i32 0, i32 2
  br label %32

32:                                               ; preds = %31, %6, %5
  %.0 = phi i32 [ -20, %5 ], [ -6, %6 ], [ %., %31 ]
  ret i32 %.0
}